MPLINK 5.08, LINKER
Linker Map File - Created Sun May 27 23:24:05 2018

                                 Section Info
                  Section       Type    Address   Location Size(Bytes)
                ---------  ---------  ---------  ---------  ---------
                   .org_0       code   0x000000    program   0x000002
                   .cinit    romdata   0x000001    program   0x000004
                   .org_1       code   0x000004    program   0x0006fa



                              Program Memory Usage 
                               Start         End      
                           ---------   ---------      
                            0x000000    0x000002      
                            0x000004    0x000380      
            896 out of 8454 program addresses used, program memory utilization is 10%



                              Symbols - Sorted by Name
                     Name    Address   Location    Storage File                     
                ---------  ---------  ---------  --------- ---------                
                      A1E   0x00010a    program     static C:\Users\acer\MPLABXProjects\RX-TX.X\RxTx.asm
                      A1N   0x0000fe    program     static C:\Users\acer\MPLABXProjects\RX-TX.X\RxTx.asm
                      A1S   0x000116    program     static C:\Users\acer\MPLABXProjects\RX-TX.X\RxTx.asm
                      A1W   0x000122    program     static C:\Users\acer\MPLABXProjects\RX-TX.X\RxTx.asm
                      A2E   0x00010c    program     static C:\Users\acer\MPLABXProjects\RX-TX.X\RxTx.asm
                      A2N   0x000100    program     static C:\Users\acer\MPLABXProjects\RX-TX.X\RxTx.asm
                      A2S   0x000118    program     static C:\Users\acer\MPLABXProjects\RX-TX.X\RxTx.asm
                      A2W   0x000124    program     static C:\Users\acer\MPLABXProjects\RX-TX.X\RxTx.asm
                  ADC_OFF   0x00020f    program     static C:\Users\acer\MPLABXProjects\RX-TX.X\RxTx.asm
                   ADC_ON   0x00020c    program     static C:\Users\acer\MPLABXProjects\RX-TX.X\RxTx.asm
         ADDITION_OF_FOUR   0x0000f7    program     static C:\Users\acer\MPLABXProjects\RX-TX.X\RxTx.asm
            ADDITION_ZERO   0x0000f4    program     static C:\Users\acer\MPLABXProjects\RX-TX.X\RxTx.asm
                  ADD_ONE   0x000026    program     static C:\Users\acer\MPLABXProjects\RX-TX.X\RxTx.asm
                 ADD_TO_H   0x00002a    program     static C:\Users\acer\MPLABXProjects\RX-TX.X\RxTx.asm
                 ADD_ZERO   0x000028    program     static C:\Users\acer\MPLABXProjects\RX-TX.X\RxTx.asm
                     BUSY   0x000376    program     static C:\Users\acer\MPLABXProjects\RX-TX.X\RxTx.asm
             CALCULATIONS   0x0000ed    program     static C:\Users\acer\MPLABXProjects\RX-TX.X\RxTx.asm
             CHECK_POIT_0   0x00025e    program     static C:\Users\acer\MPLABXProjects\RX-TX.X\RxTx.asm
            CHECK_POIT_0H   0x000242    program     static C:\Users\acer\MPLABXProjects\RX-TX.X\RxTx.asm
             CHECK_POIT_1   0x00025b    program     static C:\Users\acer\MPLABXProjects\RX-TX.X\RxTx.asm
            CHECK_POIT_1H   0x00023d    program     static C:\Users\acer\MPLABXProjects\RX-TX.X\RxTx.asm
             CHECK_POIT_2   0x000258    program     static C:\Users\acer\MPLABXProjects\RX-TX.X\RxTx.asm
            CHECK_POIT_2H   0x000238    program     static C:\Users\acer\MPLABXProjects\RX-TX.X\RxTx.asm
                CHECK_TSR   0x000058    program     static C:\Users\acer\MPLABXProjects\RX-TX.X\RxTx.asm
                  COMPARE   0x000064    program     static C:\Users\acer\MPLABXProjects\RX-TX.X\RxTx.asm
         COMPARE_SETTINGS   0x0000e5    program     static C:\Users\acer\MPLABXProjects\RX-TX.X\RxTx.asm
              COMPARISION   0x00006f    program     static C:\Users\acer\MPLABXProjects\RX-TX.X\RxTx.asm
      CONFIG_ADC_INTERUPT   0x000212    program     static C:\Users\acer\MPLABXProjects\RX-TX.X\RxTx.asm
        CONFIG_ADC_MODULE   0x0001ed    program     static C:\Users\acer\MPLABXProjects\RX-TX.X\RxTx.asm
              DELAY_50_MS   0x000327    program     static C:\Users\acer\MPLABXProjects\RX-TX.X\RxTx.asm
                  DEVIDER   0x000016    program     static C:\Users\acer\MPLABXProjects\RX-TX.X\RxTx.asm
                       ED   0x000078    program     static C:\Users\acer\MPLABXProjects\RX-TX.X\RxTx.asm
             ENABLE_PULSE   0x000323    program     static C:\Users\acer\MPLABXProjects\RX-TX.X\RxTx.asm
                 ENDZ_CMP   0x0000e4    program     static C:\Users\acer\MPLABXProjects\RX-TX.X\RxTx.asm
                    END_2   0x0002cb    program     static C:\Users\acer\MPLABXProjects\RX-TX.X\RxTx.asm
                    END_3   0x000257    program     static C:\Users\acer\MPLABXProjects\RX-TX.X\RxTx.asm
                   END_3H   0x000237    program     static C:\Users\acer\MPLABXProjects\RX-TX.X\RxTx.asm
            END_CONVERSON   0x00021a    program     static C:\Users\acer\MPLABXProjects\RX-TX.X\RxTx.asm
             END_MULTIPLY   0x000039    program     static C:\Users\acer\MPLABXProjects\RX-TX.X\RxTx.asm
                       ES   0x000096    program     static C:\Users\acer\MPLABXProjects\RX-TX.X\RxTx.asm
                  FIND_K0   0x000252    program     static C:\Users\acer\MPLABXProjects\RX-TX.X\RxTx.asm
                  FIND_K1   0x00024d    program     static C:\Users\acer\MPLABXProjects\RX-TX.X\RxTx.asm
                  FIND_K2   0x000248    program     static C:\Users\acer\MPLABXProjects\RX-TX.X\RxTx.asm
                 FIND_KH0   0x000232    program     static C:\Users\acer\MPLABXProjects\RX-TX.X\RxTx.asm
                 FIND_KH1   0x00022d    program     static C:\Users\acer\MPLABXProjects\RX-TX.X\RxTx.asm
                 FIND_KH2   0x000228    program     static C:\Users\acer\MPLABXProjects\RX-TX.X\RxTx.asm
            GET_CHARACTER   0x000366    program     static C:\Users\acer\MPLABXProjects\RX-TX.X\RxTx.asm
               GET_VALUES   0x0001b5    program     static C:\Users\acer\MPLABXProjects\RX-TX.X\RxTx.asm
                 GET_ZERO   0x000180    program     static C:\Users\acer\MPLABXProjects\RX-TX.X\RxTx.asm
                GO_BANK_0   0x000317    program     static C:\Users\acer\MPLABXProjects\RX-TX.X\RxTx.asm
                GO_BANK_1   0x00031a    program     static C:\Users\acer\MPLABXProjects\RX-TX.X\RxTx.asm
                GO_BANK_2   0x00031d    program     static C:\Users\acer\MPLABXProjects\RX-TX.X\RxTx.asm
                GO_BANK_3   0x000320    program     static C:\Users\acer\MPLABXProjects\RX-TX.X\RxTx.asm
      IC_INTERRUPT_CONFIG   0x000311    program     static C:\Users\acer\MPLABXProjects\RX-TX.X\RxTx.asm
           INITIALIZE_ADC   0x0001e8    program     static C:\Users\acer\MPLABXProjects\RX-TX.X\RxTx.asm
   INITIALIZE_ADC_SETTING   0x0001f0    program     static C:\Users\acer\MPLABXProjects\RX-TX.X\RxTx.asm
            INITIALIZE_IC   0x000301    program     static C:\Users\acer\MPLABXProjects\RX-TX.X\RxTx.asm
           INITIALIZE_LCD   0x0002cc    program     static C:\Users\acer\MPLABXProjects\RX-TX.X\RxTx.asm
                 K0_CHECK   0x00026d    program     static C:\Users\acer\MPLABXProjects\RX-TX.X\RxTx.asm
               K0_MIN_TEN   0x000272    program     static C:\Users\acer\MPLABXProjects\RX-TX.X\RxTx.asm
             K0_PLUS_FIVE   0x000267    program     static C:\Users\acer\MPLABXProjects\RX-TX.X\RxTx.asm
              K0_PLUS_ONE   0x000261    program     static C:\Users\acer\MPLABXProjects\RX-TX.X\RxTx.asm
              K0_PLUS_SIX   0x00026a    program     static C:\Users\acer\MPLABXProjects\RX-TX.X\RxTx.asm
              K0_PLUS_TWO   0x000264    program     static C:\Users\acer\MPLABXProjects\RX-TX.X\RxTx.asm
                 K1_CHECK   0x000282    program     static C:\Users\acer\MPLABXProjects\RX-TX.X\RxTx.asm
               K1_MIN_TEN   0x000287    program     static C:\Users\acer\MPLABXProjects\RX-TX.X\RxTx.asm
             K1_PLUS_FIVE   0x00027c    program     static C:\Users\acer\MPLABXProjects\RX-TX.X\RxTx.asm
              K1_PLUS_ONE   0x000276    program     static C:\Users\acer\MPLABXProjects\RX-TX.X\RxTx.asm
              K1_PLUS_SIX   0x00027f    program     static C:\Users\acer\MPLABXProjects\RX-TX.X\RxTx.asm
              K1_PLUS_TWO   0x000279    program     static C:\Users\acer\MPLABXProjects\RX-TX.X\RxTx.asm
                 K2_CHECK   0x000297    program     static C:\Users\acer\MPLABXProjects\RX-TX.X\RxTx.asm
               K2_MIN_TEN   0x00029c    program     static C:\Users\acer\MPLABXProjects\RX-TX.X\RxTx.asm
             K2_PLUS_FIVE   0x000291    program     static C:\Users\acer\MPLABXProjects\RX-TX.X\RxTx.asm
              K2_PLUS_ONE   0x00028b    program     static C:\Users\acer\MPLABXProjects\RX-TX.X\RxTx.asm
              K2_PLUS_SIX   0x000294    program     static C:\Users\acer\MPLABXProjects\RX-TX.X\RxTx.asm
              K2_PLUS_TWO   0x00028e    program     static C:\Users\acer\MPLABXProjects\RX-TX.X\RxTx.asm
                 K3_CHECK   0x0002ac    program     static C:\Users\acer\MPLABXProjects\RX-TX.X\RxTx.asm
               K3_MIN_TEN   0x0002b2    program     static C:\Users\acer\MPLABXProjects\RX-TX.X\RxTx.asm
             K3_PLUS_FIVE   0x0002a6    program     static C:\Users\acer\MPLABXProjects\RX-TX.X\RxTx.asm
              K3_PLUS_ONE   0x0002a0    program     static C:\Users\acer\MPLABXProjects\RX-TX.X\RxTx.asm
              K3_PLUS_SIX   0x0002a9    program     static C:\Users\acer\MPLABXProjects\RX-TX.X\RxTx.asm
              K3_PLUS_TWO   0x0002a3    program     static C:\Users\acer\MPLABXProjects\RX-TX.X\RxTx.asm
                 K4_CHECK   0x0002c2    program     static C:\Users\acer\MPLABXProjects\RX-TX.X\RxTx.asm
               K4_MIN_TEN   0x0002c8    program     static C:\Users\acer\MPLABXProjects\RX-TX.X\RxTx.asm
             K4_PLUS_FIVE   0x0002bc    program     static C:\Users\acer\MPLABXProjects\RX-TX.X\RxTx.asm
              K4_PLUS_ONE   0x0002b6    program     static C:\Users\acer\MPLABXProjects\RX-TX.X\RxTx.asm
              K4_PLUS_SIX   0x0002bf    program     static C:\Users\acer\MPLABXProjects\RX-TX.X\RxTx.asm
              K4_PLUS_TWO   0x0002b9    program     static C:\Users\acer\MPLABXProjects\RX-TX.X\RxTx.asm
         K_VALUES_TO_ZERO   0x00021c    program     static C:\Users\acer\MPLABXProjects\RX-TX.X\RxTx.asm
           LCD_CHECK_BUSY   0x000375    program     static C:\Users\acer\MPLABXProjects\RX-TX.X\RxTx.asm
                   LOOP_E   0x000190    program     static C:\Users\acer\MPLABXProjects\RX-TX.X\RxTx.asm
                  LOOP_EV   0x0001c6    program     static C:\Users\acer\MPLABXProjects\RX-TX.X\RxTx.asm
                   LOOP_N   0x000183    program     static C:\Users\acer\MPLABXProjects\RX-TX.X\RxTx.asm
                  LOOP_NV   0x0001ba    program     static C:\Users\acer\MPLABXProjects\RX-TX.X\RxTx.asm
                   LOOP_S   0x00019d    program     static C:\Users\acer\MPLABXProjects\RX-TX.X\RxTx.asm
                  LOOP_SV   0x0001d2    program     static C:\Users\acer\MPLABXProjects\RX-TX.X\RxTx.asm
                   LOOP_W   0x0001aa    program     static C:\Users\acer\MPLABXProjects\RX-TX.X\RxTx.asm
                  LOOP_WV   0x0001de    program     static C:\Users\acer\MPLABXProjects\RX-TX.X\RxTx.asm
          MAKE_LCD_NUMBER   0x000370    program     static C:\Users\acer\MPLABXProjects\RX-TX.X\RxTx.asm
           MULTIPLY_X_100   0x000017    program     static C:\Users\acer\MPLABXProjects\RX-TX.X\RxTx.asm
         MULTIPLY_X_100_H   0x000030    program     static C:\Users\acer\MPLABXProjects\RX-TX.X\RxTx.asm
                     Main   0x000005    program     static C:\Users\acer\MPLABXProjects\RX-TX.X\RxTx.asm
                       NE   0x00007c    program     static C:\Users\acer\MPLABXProjects\RX-TX.X\RxTx.asm
                 NOT_BUSY   0x00037b    program     static C:\Users\acer\MPLABXProjects\RX-TX.X\RxTx.asm
                       NW   0x0000b0    program     static C:\Users\acer\MPLABXProjects\RX-TX.X\RxTx.asm
                      P11   0x0001e7    program     static C:\Users\acer\MPLABXProjects\RX-TX.X\RxTx.asm
              PRINT_ANGLE   0x000066    program     static C:\Users\acer\MPLABXProjects\RX-TX.X\RxTx.asm
         PRINT_ANGLE_TEXT   0x000340    program     static C:\Users\acer\MPLABXProjects\RX-TX.X\RxTx.asm
               PRINT_CHAR   0x000372    program     static C:\Users\acer\MPLABXProjects\RX-TX.X\RxTx.asm
          PRINT_DIRECTION   0x00032a    program     static C:\Users\acer\MPLABXProjects\RX-TX.X\RxTx.asm
                 PRINT_ER   0x0000f0    program     static C:\Users\acer\MPLABXProjects\RX-TX.X\RxTx.asm
           PRINT_K_VALUES   0x00034d    program     static C:\Users\acer\MPLABXProjects\RX-TX.X\RxTx.asm
           PRINT_SET_ZERO   0x000169    program     static C:\Users\acer\MPLABXProjects\RX-TX.X\RxTx.asm
       PROCESS_HIGH_VALUE   0x000227    program     static C:\Users\acer\MPLABXProjects\RX-TX.X\RxTx.asm
      PROCESS_LOWER_VALUE   0x000247    program     static C:\Users\acer\MPLABXProjects\RX-TX.X\RxTx.asm
                PUSH_DATA   0x000057    program     static C:\Users\acer\MPLABXProjects\RX-TX.X\RxTx.asm
                RET_POINT   0x000166    program     static C:\Users\acer\MPLABXProjects\RX-TX.X\RxTx.asm
             RX_TX_CONFIG   0x000043    program     static C:\Users\acer\MPLABXProjects\RX-TX.X\RxTx.asm
          RX_TX_INTERRUPT   0x00005f    program     static C:\Users\acer\MPLABXProjects\RX-TX.X\RxTx.asm
                SEND_DATA   0x00004f    program     static C:\Users\acer\MPLABXProjects\RX-TX.X\RxTx.asm
           SET_ANALOG_CH0   0x0001fc    program     static C:\Users\acer\MPLABXProjects\RX-TX.X\RxTx.asm
           SET_ANALOG_CH1   0x000200    program     static C:\Users\acer\MPLABXProjects\RX-TX.X\RxTx.asm
           SET_ANALOG_CH2   0x000204    program     static C:\Users\acer\MPLABXProjects\RX-TX.X\RxTx.asm
           SET_ANALOG_CH3   0x000208    program     static C:\Users\acer\MPLABXProjects\RX-TX.X\RxTx.asm
       SET_VALUES_TO_ZERO   0x000153    program     static C:\Users\acer\MPLABXProjects\RX-TX.X\RxTx.asm
                 SET_ZERO   0x000164    program     static C:\Users\acer\MPLABXProjects\RX-TX.X\RxTx.asm
          START_CONVERSON   0x000218    program     static C:\Users\acer\MPLABXProjects\RX-TX.X\RxTx.asm
         START_MULTYPLY_H   0x000032    program     static C:\Users\acer\MPLABXProjects\RX-TX.X\RxTx.asm
         START_MULTYPLY_L   0x000021    program     static C:\Users\acer\MPLABXProjects\RX-TX.X\RxTx.asm
                SUBSTRACT   0x00012a    program     static C:\Users\acer\MPLABXProjects\RX-TX.X\RxTx.asm
              SUBSTRACT_E   0x000138    program     static C:\Users\acer\MPLABXProjects\RX-TX.X\RxTx.asm
              SUBSTRACT_N   0x00012f    program     static C:\Users\acer\MPLABXProjects\RX-TX.X\RxTx.asm
              SUBSTRACT_S   0x000141    program     static C:\Users\acer\MPLABXProjects\RX-TX.X\RxTx.asm
              SUBSTRACT_W   0x00014a    program     static C:\Users\acer\MPLABXProjects\RX-TX.X\RxTx.asm
                       SW   0x0000ca    program     static C:\Users\acer\MPLABXProjects\RX-TX.X\RxTx.asm
                      T2E   0x00010e    program     static C:\Users\acer\MPLABXProjects\RX-TX.X\RxTx.asm
                      T2N   0x000102    program     static C:\Users\acer\MPLABXProjects\RX-TX.X\RxTx.asm
                      T2S   0x00011a    program     static C:\Users\acer\MPLABXProjects\RX-TX.X\RxTx.asm
                      T2W   0x000126    program     static C:\Users\acer\MPLABXProjects\RX-TX.X\RxTx.asm
                 TEMPLATE   0x00000b    program     static C:\Users\acer\MPLABXProjects\RX-TX.X\RxTx.asm
                     WAIT   0x00037c    program     static C:\Users\acer\MPLABXProjects\RX-TX.X\RxTx.asm
                       WD   0x000074    program     static C:\Users\acer\MPLABXProjects\RX-TX.X\RxTx.asm
                       XP   0x0000f1    program     static C:\Users\acer\MPLABXProjects\RX-TX.X\RxTx.asm
             dataSendMode   0x0002d8    program     static C:\Users\acer\MPLABXProjects\RX-TX.X\RxTx.asm
             displayClear   0x0002e5    program     static C:\Users\acer\MPLABXProjects\RX-TX.X\RxTx.asm
          instructionMode   0x0002d4    program     static C:\Users\acer\MPLABXProjects\RX-TX.X\RxTx.asm
          setDisplayOnOff   0x0002e0    program     static C:\Users\acer\MPLABXProjects\RX-TX.X\RxTx.asm
           setEntryModule   0x0002eb    program     static C:\Users\acer\MPLABXProjects\RX-TX.X\RxTx.asm
             setFunctions   0x0002da    program     static C:\Users\acer\MPLABXProjects\RX-TX.X\RxTx.asm
        set_CGRAM_address   0x0002f0    program     static C:\Users\acer\MPLABXProjects\RX-TX.X\RxTx.asm
set_DDRAM_address_to_line1   0x0002f5    program     static C:\Users\acer\MPLABXProjects\RX-TX.X\RxTx.asm
set_DDRAM_address_to_line2   0x0002fb    program     static C:\Users\acer\MPLABXProjects\RX-TX.X\RxTx.asm



                              Symbols - Sorted by Address
                     Name    Address   Location    Storage File                     
                ---------  ---------  ---------  --------- ---------                
                     Main   0x000005    program     static C:\Users\acer\MPLABXProjects\RX-TX.X\RxTx.asm
                 TEMPLATE   0x00000b    program     static C:\Users\acer\MPLABXProjects\RX-TX.X\RxTx.asm
                  DEVIDER   0x000016    program     static C:\Users\acer\MPLABXProjects\RX-TX.X\RxTx.asm
           MULTIPLY_X_100   0x000017    program     static C:\Users\acer\MPLABXProjects\RX-TX.X\RxTx.asm
         START_MULTYPLY_L   0x000021    program     static C:\Users\acer\MPLABXProjects\RX-TX.X\RxTx.asm
                  ADD_ONE   0x000026    program     static C:\Users\acer\MPLABXProjects\RX-TX.X\RxTx.asm
                 ADD_ZERO   0x000028    program     static C:\Users\acer\MPLABXProjects\RX-TX.X\RxTx.asm
                 ADD_TO_H   0x00002a    program     static C:\Users\acer\MPLABXProjects\RX-TX.X\RxTx.asm
         MULTIPLY_X_100_H   0x000030    program     static C:\Users\acer\MPLABXProjects\RX-TX.X\RxTx.asm
         START_MULTYPLY_H   0x000032    program     static C:\Users\acer\MPLABXProjects\RX-TX.X\RxTx.asm
             END_MULTIPLY   0x000039    program     static C:\Users\acer\MPLABXProjects\RX-TX.X\RxTx.asm
             RX_TX_CONFIG   0x000043    program     static C:\Users\acer\MPLABXProjects\RX-TX.X\RxTx.asm
                SEND_DATA   0x00004f    program     static C:\Users\acer\MPLABXProjects\RX-TX.X\RxTx.asm
                PUSH_DATA   0x000057    program     static C:\Users\acer\MPLABXProjects\RX-TX.X\RxTx.asm
                CHECK_TSR   0x000058    program     static C:\Users\acer\MPLABXProjects\RX-TX.X\RxTx.asm
          RX_TX_INTERRUPT   0x00005f    program     static C:\Users\acer\MPLABXProjects\RX-TX.X\RxTx.asm
                  COMPARE   0x000064    program     static C:\Users\acer\MPLABXProjects\RX-TX.X\RxTx.asm
              PRINT_ANGLE   0x000066    program     static C:\Users\acer\MPLABXProjects\RX-TX.X\RxTx.asm
              COMPARISION   0x00006f    program     static C:\Users\acer\MPLABXProjects\RX-TX.X\RxTx.asm
                       WD   0x000074    program     static C:\Users\acer\MPLABXProjects\RX-TX.X\RxTx.asm
                       ED   0x000078    program     static C:\Users\acer\MPLABXProjects\RX-TX.X\RxTx.asm
                       NE   0x00007c    program     static C:\Users\acer\MPLABXProjects\RX-TX.X\RxTx.asm
                       ES   0x000096    program     static C:\Users\acer\MPLABXProjects\RX-TX.X\RxTx.asm
                       NW   0x0000b0    program     static C:\Users\acer\MPLABXProjects\RX-TX.X\RxTx.asm
                       SW   0x0000ca    program     static C:\Users\acer\MPLABXProjects\RX-TX.X\RxTx.asm
                 ENDZ_CMP   0x0000e4    program     static C:\Users\acer\MPLABXProjects\RX-TX.X\RxTx.asm
         COMPARE_SETTINGS   0x0000e5    program     static C:\Users\acer\MPLABXProjects\RX-TX.X\RxTx.asm
             CALCULATIONS   0x0000ed    program     static C:\Users\acer\MPLABXProjects\RX-TX.X\RxTx.asm
                 PRINT_ER   0x0000f0    program     static C:\Users\acer\MPLABXProjects\RX-TX.X\RxTx.asm
                       XP   0x0000f1    program     static C:\Users\acer\MPLABXProjects\RX-TX.X\RxTx.asm
            ADDITION_ZERO   0x0000f4    program     static C:\Users\acer\MPLABXProjects\RX-TX.X\RxTx.asm
         ADDITION_OF_FOUR   0x0000f7    program     static C:\Users\acer\MPLABXProjects\RX-TX.X\RxTx.asm
                      A1N   0x0000fe    program     static C:\Users\acer\MPLABXProjects\RX-TX.X\RxTx.asm
                      A2N   0x000100    program     static C:\Users\acer\MPLABXProjects\RX-TX.X\RxTx.asm
                      T2N   0x000102    program     static C:\Users\acer\MPLABXProjects\RX-TX.X\RxTx.asm
                      A1E   0x00010a    program     static C:\Users\acer\MPLABXProjects\RX-TX.X\RxTx.asm
                      A2E   0x00010c    program     static C:\Users\acer\MPLABXProjects\RX-TX.X\RxTx.asm
                      T2E   0x00010e    program     static C:\Users\acer\MPLABXProjects\RX-TX.X\RxTx.asm
                      A1S   0x000116    program     static C:\Users\acer\MPLABXProjects\RX-TX.X\RxTx.asm
                      A2S   0x000118    program     static C:\Users\acer\MPLABXProjects\RX-TX.X\RxTx.asm
                      T2S   0x00011a    program     static C:\Users\acer\MPLABXProjects\RX-TX.X\RxTx.asm
                      A1W   0x000122    program     static C:\Users\acer\MPLABXProjects\RX-TX.X\RxTx.asm
                      A2W   0x000124    program     static C:\Users\acer\MPLABXProjects\RX-TX.X\RxTx.asm
                      T2W   0x000126    program     static C:\Users\acer\MPLABXProjects\RX-TX.X\RxTx.asm
                SUBSTRACT   0x00012a    program     static C:\Users\acer\MPLABXProjects\RX-TX.X\RxTx.asm
              SUBSTRACT_N   0x00012f    program     static C:\Users\acer\MPLABXProjects\RX-TX.X\RxTx.asm
              SUBSTRACT_E   0x000138    program     static C:\Users\acer\MPLABXProjects\RX-TX.X\RxTx.asm
              SUBSTRACT_S   0x000141    program     static C:\Users\acer\MPLABXProjects\RX-TX.X\RxTx.asm
              SUBSTRACT_W   0x00014a    program     static C:\Users\acer\MPLABXProjects\RX-TX.X\RxTx.asm
       SET_VALUES_TO_ZERO   0x000153    program     static C:\Users\acer\MPLABXProjects\RX-TX.X\RxTx.asm
                 SET_ZERO   0x000164    program     static C:\Users\acer\MPLABXProjects\RX-TX.X\RxTx.asm
                RET_POINT   0x000166    program     static C:\Users\acer\MPLABXProjects\RX-TX.X\RxTx.asm
           PRINT_SET_ZERO   0x000169    program     static C:\Users\acer\MPLABXProjects\RX-TX.X\RxTx.asm
                 GET_ZERO   0x000180    program     static C:\Users\acer\MPLABXProjects\RX-TX.X\RxTx.asm
                   LOOP_N   0x000183    program     static C:\Users\acer\MPLABXProjects\RX-TX.X\RxTx.asm
                   LOOP_E   0x000190    program     static C:\Users\acer\MPLABXProjects\RX-TX.X\RxTx.asm
                   LOOP_S   0x00019d    program     static C:\Users\acer\MPLABXProjects\RX-TX.X\RxTx.asm
                   LOOP_W   0x0001aa    program     static C:\Users\acer\MPLABXProjects\RX-TX.X\RxTx.asm
               GET_VALUES   0x0001b5    program     static C:\Users\acer\MPLABXProjects\RX-TX.X\RxTx.asm
                  LOOP_NV   0x0001ba    program     static C:\Users\acer\MPLABXProjects\RX-TX.X\RxTx.asm
                  LOOP_EV   0x0001c6    program     static C:\Users\acer\MPLABXProjects\RX-TX.X\RxTx.asm
                  LOOP_SV   0x0001d2    program     static C:\Users\acer\MPLABXProjects\RX-TX.X\RxTx.asm
                  LOOP_WV   0x0001de    program     static C:\Users\acer\MPLABXProjects\RX-TX.X\RxTx.asm
                      P11   0x0001e7    program     static C:\Users\acer\MPLABXProjects\RX-TX.X\RxTx.asm
           INITIALIZE_ADC   0x0001e8    program     static C:\Users\acer\MPLABXProjects\RX-TX.X\RxTx.asm
        CONFIG_ADC_MODULE   0x0001ed    program     static C:\Users\acer\MPLABXProjects\RX-TX.X\RxTx.asm
   INITIALIZE_ADC_SETTING   0x0001f0    program     static C:\Users\acer\MPLABXProjects\RX-TX.X\RxTx.asm
           SET_ANALOG_CH0   0x0001fc    program     static C:\Users\acer\MPLABXProjects\RX-TX.X\RxTx.asm
           SET_ANALOG_CH1   0x000200    program     static C:\Users\acer\MPLABXProjects\RX-TX.X\RxTx.asm
           SET_ANALOG_CH2   0x000204    program     static C:\Users\acer\MPLABXProjects\RX-TX.X\RxTx.asm
           SET_ANALOG_CH3   0x000208    program     static C:\Users\acer\MPLABXProjects\RX-TX.X\RxTx.asm
                   ADC_ON   0x00020c    program     static C:\Users\acer\MPLABXProjects\RX-TX.X\RxTx.asm
                  ADC_OFF   0x00020f    program     static C:\Users\acer\MPLABXProjects\RX-TX.X\RxTx.asm
      CONFIG_ADC_INTERUPT   0x000212    program     static C:\Users\acer\MPLABXProjects\RX-TX.X\RxTx.asm
          START_CONVERSON   0x000218    program     static C:\Users\acer\MPLABXProjects\RX-TX.X\RxTx.asm
            END_CONVERSON   0x00021a    program     static C:\Users\acer\MPLABXProjects\RX-TX.X\RxTx.asm
         K_VALUES_TO_ZERO   0x00021c    program     static C:\Users\acer\MPLABXProjects\RX-TX.X\RxTx.asm
       PROCESS_HIGH_VALUE   0x000227    program     static C:\Users\acer\MPLABXProjects\RX-TX.X\RxTx.asm
                 FIND_KH2   0x000228    program     static C:\Users\acer\MPLABXProjects\RX-TX.X\RxTx.asm
                 FIND_KH1   0x00022d    program     static C:\Users\acer\MPLABXProjects\RX-TX.X\RxTx.asm
                 FIND_KH0   0x000232    program     static C:\Users\acer\MPLABXProjects\RX-TX.X\RxTx.asm
                   END_3H   0x000237    program     static C:\Users\acer\MPLABXProjects\RX-TX.X\RxTx.asm
            CHECK_POIT_2H   0x000238    program     static C:\Users\acer\MPLABXProjects\RX-TX.X\RxTx.asm
            CHECK_POIT_1H   0x00023d    program     static C:\Users\acer\MPLABXProjects\RX-TX.X\RxTx.asm
            CHECK_POIT_0H   0x000242    program     static C:\Users\acer\MPLABXProjects\RX-TX.X\RxTx.asm
      PROCESS_LOWER_VALUE   0x000247    program     static C:\Users\acer\MPLABXProjects\RX-TX.X\RxTx.asm
                  FIND_K2   0x000248    program     static C:\Users\acer\MPLABXProjects\RX-TX.X\RxTx.asm
                  FIND_K1   0x00024d    program     static C:\Users\acer\MPLABXProjects\RX-TX.X\RxTx.asm
                  FIND_K0   0x000252    program     static C:\Users\acer\MPLABXProjects\RX-TX.X\RxTx.asm
                    END_3   0x000257    program     static C:\Users\acer\MPLABXProjects\RX-TX.X\RxTx.asm
             CHECK_POIT_2   0x000258    program     static C:\Users\acer\MPLABXProjects\RX-TX.X\RxTx.asm
             CHECK_POIT_1   0x00025b    program     static C:\Users\acer\MPLABXProjects\RX-TX.X\RxTx.asm
             CHECK_POIT_0   0x00025e    program     static C:\Users\acer\MPLABXProjects\RX-TX.X\RxTx.asm
              K0_PLUS_ONE   0x000261    program     static C:\Users\acer\MPLABXProjects\RX-TX.X\RxTx.asm
              K0_PLUS_TWO   0x000264    program     static C:\Users\acer\MPLABXProjects\RX-TX.X\RxTx.asm
             K0_PLUS_FIVE   0x000267    program     static C:\Users\acer\MPLABXProjects\RX-TX.X\RxTx.asm
              K0_PLUS_SIX   0x00026a    program     static C:\Users\acer\MPLABXProjects\RX-TX.X\RxTx.asm
                 K0_CHECK   0x00026d    program     static C:\Users\acer\MPLABXProjects\RX-TX.X\RxTx.asm
               K0_MIN_TEN   0x000272    program     static C:\Users\acer\MPLABXProjects\RX-TX.X\RxTx.asm
              K1_PLUS_ONE   0x000276    program     static C:\Users\acer\MPLABXProjects\RX-TX.X\RxTx.asm
              K1_PLUS_TWO   0x000279    program     static C:\Users\acer\MPLABXProjects\RX-TX.X\RxTx.asm
             K1_PLUS_FIVE   0x00027c    program     static C:\Users\acer\MPLABXProjects\RX-TX.X\RxTx.asm
              K1_PLUS_SIX   0x00027f    program     static C:\Users\acer\MPLABXProjects\RX-TX.X\RxTx.asm
                 K1_CHECK   0x000282    program     static C:\Users\acer\MPLABXProjects\RX-TX.X\RxTx.asm
               K1_MIN_TEN   0x000287    program     static C:\Users\acer\MPLABXProjects\RX-TX.X\RxTx.asm
              K2_PLUS_ONE   0x00028b    program     static C:\Users\acer\MPLABXProjects\RX-TX.X\RxTx.asm
              K2_PLUS_TWO   0x00028e    program     static C:\Users\acer\MPLABXProjects\RX-TX.X\RxTx.asm
             K2_PLUS_FIVE   0x000291    program     static C:\Users\acer\MPLABXProjects\RX-TX.X\RxTx.asm
              K2_PLUS_SIX   0x000294    program     static C:\Users\acer\MPLABXProjects\RX-TX.X\RxTx.asm
                 K2_CHECK   0x000297    program     static C:\Users\acer\MPLABXProjects\RX-TX.X\RxTx.asm
               K2_MIN_TEN   0x00029c    program     static C:\Users\acer\MPLABXProjects\RX-TX.X\RxTx.asm
              K3_PLUS_ONE   0x0002a0    program     static C:\Users\acer\MPLABXProjects\RX-TX.X\RxTx.asm
              K3_PLUS_TWO   0x0002a3    program     static C:\Users\acer\MPLABXProjects\RX-TX.X\RxTx.asm
             K3_PLUS_FIVE   0x0002a6    program     static C:\Users\acer\MPLABXProjects\RX-TX.X\RxTx.asm
              K3_PLUS_SIX   0x0002a9    program     static C:\Users\acer\MPLABXProjects\RX-TX.X\RxTx.asm
                 K3_CHECK   0x0002ac    program     static C:\Users\acer\MPLABXProjects\RX-TX.X\RxTx.asm
               K3_MIN_TEN   0x0002b2    program     static C:\Users\acer\MPLABXProjects\RX-TX.X\RxTx.asm
              K4_PLUS_ONE   0x0002b6    program     static C:\Users\acer\MPLABXProjects\RX-TX.X\RxTx.asm
              K4_PLUS_TWO   0x0002b9    program     static C:\Users\acer\MPLABXProjects\RX-TX.X\RxTx.asm
             K4_PLUS_FIVE   0x0002bc    program     static C:\Users\acer\MPLABXProjects\RX-TX.X\RxTx.asm
              K4_PLUS_SIX   0x0002bf    program     static C:\Users\acer\MPLABXProjects\RX-TX.X\RxTx.asm
                 K4_CHECK   0x0002c2    program     static C:\Users\acer\MPLABXProjects\RX-TX.X\RxTx.asm
               K4_MIN_TEN   0x0002c8    program     static C:\Users\acer\MPLABXProjects\RX-TX.X\RxTx.asm
                    END_2   0x0002cb    program     static C:\Users\acer\MPLABXProjects\RX-TX.X\RxTx.asm
           INITIALIZE_LCD   0x0002cc    program     static C:\Users\acer\MPLABXProjects\RX-TX.X\RxTx.asm
          instructionMode   0x0002d4    program     static C:\Users\acer\MPLABXProjects\RX-TX.X\RxTx.asm
             dataSendMode   0x0002d8    program     static C:\Users\acer\MPLABXProjects\RX-TX.X\RxTx.asm
             setFunctions   0x0002da    program     static C:\Users\acer\MPLABXProjects\RX-TX.X\RxTx.asm
          setDisplayOnOff   0x0002e0    program     static C:\Users\acer\MPLABXProjects\RX-TX.X\RxTx.asm
             displayClear   0x0002e5    program     static C:\Users\acer\MPLABXProjects\RX-TX.X\RxTx.asm
           setEntryModule   0x0002eb    program     static C:\Users\acer\MPLABXProjects\RX-TX.X\RxTx.asm
        set_CGRAM_address   0x0002f0    program     static C:\Users\acer\MPLABXProjects\RX-TX.X\RxTx.asm
set_DDRAM_address_to_line1   0x0002f5    program     static C:\Users\acer\MPLABXProjects\RX-TX.X\RxTx.asm
set_DDRAM_address_to_line2   0x0002fb    program     static C:\Users\acer\MPLABXProjects\RX-TX.X\RxTx.asm
            INITIALIZE_IC   0x000301    program     static C:\Users\acer\MPLABXProjects\RX-TX.X\RxTx.asm
      IC_INTERRUPT_CONFIG   0x000311    program     static C:\Users\acer\MPLABXProjects\RX-TX.X\RxTx.asm
                GO_BANK_0   0x000317    program     static C:\Users\acer\MPLABXProjects\RX-TX.X\RxTx.asm
                GO_BANK_1   0x00031a    program     static C:\Users\acer\MPLABXProjects\RX-TX.X\RxTx.asm
                GO_BANK_2   0x00031d    program     static C:\Users\acer\MPLABXProjects\RX-TX.X\RxTx.asm
                GO_BANK_3   0x000320    program     static C:\Users\acer\MPLABXProjects\RX-TX.X\RxTx.asm
             ENABLE_PULSE   0x000323    program     static C:\Users\acer\MPLABXProjects\RX-TX.X\RxTx.asm
              DELAY_50_MS   0x000327    program     static C:\Users\acer\MPLABXProjects\RX-TX.X\RxTx.asm
          PRINT_DIRECTION   0x00032a    program     static C:\Users\acer\MPLABXProjects\RX-TX.X\RxTx.asm
         PRINT_ANGLE_TEXT   0x000340    program     static C:\Users\acer\MPLABXProjects\RX-TX.X\RxTx.asm
           PRINT_K_VALUES   0x00034d    program     static C:\Users\acer\MPLABXProjects\RX-TX.X\RxTx.asm
            GET_CHARACTER   0x000366    program     static C:\Users\acer\MPLABXProjects\RX-TX.X\RxTx.asm
          MAKE_LCD_NUMBER   0x000370    program     static C:\Users\acer\MPLABXProjects\RX-TX.X\RxTx.asm
               PRINT_CHAR   0x000372    program     static C:\Users\acer\MPLABXProjects\RX-TX.X\RxTx.asm
           LCD_CHECK_BUSY   0x000375    program     static C:\Users\acer\MPLABXProjects\RX-TX.X\RxTx.asm
                     BUSY   0x000376    program     static C:\Users\acer\MPLABXProjects\RX-TX.X\RxTx.asm
                 NOT_BUSY   0x00037b    program     static C:\Users\acer\MPLABXProjects\RX-TX.X\RxTx.asm
                     WAIT   0x00037c    program     static C:\Users\acer\MPLABXProjects\RX-TX.X\RxTx.asm


